target datalayout = "e-m:e-p270:32:32-p271:32:32-p272:64:64-i64:64-i128:128-f80:128-n8:16:32:64-S128"
target triple = "x86_64-pc-linux-gnu"

%struct.XXH_NAMESPACEXXH128_hash_t = type { i64, i64 }

; Function Attrs: nounwind uwtable
define internal ptr @XXH_memcpy(ptr noundef %0, ptr noundef %1, i64 noundef %2) #0 {
  %4 = alloca ptr, align 8
  %5 = alloca ptr, align 8
  %6 = alloca i64, align 8
  store ptr %0, ptr %4, align 8, !tbaa !4
  store ptr %1, ptr %5, align 8, !tbaa !4
  store i64 %2, ptr %6, align 8, !tbaa !15
  %7 = load ptr, ptr %4, align 8, !tbaa !4
  %8 = load ptr, ptr %5, align 8, !tbaa !4
  %9 = load i64, ptr %6, align 8, !tbaa !15
  call void @llvm.memcpy.p0.p0.i64(ptr align 1 %7, ptr align 1 %8, i64 %9, i1 false)
  ret ptr %7
}

; Function Attrs: nounwind uwtable
define internal { i64, i64 } @XXH_mult64to128(i64 noundef %0, i64 noundef %1) #0 {
  %3 = alloca %struct.XXH_NAMESPACEXXH128_hash_t, align 8
  %4 = alloca i64, align 8
  %5 = alloca i64, align 8
  %6 = alloca i128, align 16
  store i64 %0, ptr %4, align 8, !tbaa !15
  store i64 %1, ptr %5, align 8, !tbaa !15
  call void @llvm.lifetime.start.p0(i64 16, ptr %6) #14
  %7 = load i64, ptr %4, align 8, !tbaa !15
  %8 = zext i64 %7 to i128
  %9 = load i64, ptr %5, align 8, !tbaa !15
  %10 = zext i64 %9 to i128
  %11 = mul i128 %8, %10
  store i128 %11, ptr %6, align 16, !tbaa !102
  %12 = load i128, ptr %6, align 16, !tbaa !102
  %13 = trunc i128 %12 to i64
  %14 = getelementptr inbounds nuw %struct.XXH_NAMESPACEXXH128_hash_t, ptr %3, i32 0, i32 0
  store i64 %13, ptr %14, align 8, !tbaa !90
  %15 = load i128, ptr %6, align 16, !tbaa !102
  %16 = lshr i128 %15, 64
  %17 = trunc i128 %16 to i64
  %18 = getelementptr inbounds nuw %struct.XXH_NAMESPACEXXH128_hash_t, ptr %3, i32 0, i32 1
  store i64 %17, ptr %18, align 8, !tbaa !88
  call void @llvm.lifetime.end.p0(i64 16, ptr %6) #14
  %19 = load { i64, i64 }, ptr %3, align 8
  ret { i64, i64 } %19
}

; Function Attrs: nounwind uwtable
define internal i64 @XXH_read64(ptr noundef %0) #0 {
  %2 = alloca ptr, align 8
  %3 = alloca i64, align 8
  store ptr %0, ptr %2, align 8, !tbaa !4
  call void @llvm.lifetime.start.p0(i64 8, ptr %3) #14
  %4 = load ptr, ptr %2, align 8, !tbaa !4
  %5 = call ptr @XXH_memcpy(ptr noundef %3, ptr noundef %4, i64 noundef 8)
  %6 = load i64, ptr %3, align 8, !tbaa !15
  call void @llvm.lifetime.end.p0(i64 8, ptr %3) #14
  ret i64 %6
}

; Function Attrs: nounwind uwtable
define internal i64 @XXH3_mul128_fold64(i64 noundef %0, i64 noundef %1) #0 {
  %3 = alloca i64, align 8
  %4 = alloca i64, align 8
  %5 = alloca %struct.XXH_NAMESPACEXXH128_hash_t, align 8
  store i64 %0, ptr %3, align 8, !tbaa !15
  store i64 %1, ptr %4, align 8, !tbaa !15
  call void @llvm.lifetime.start.p0(i64 16, ptr %5) #14
  %6 = load i64, ptr %3, align 8, !tbaa !15
  %7 = load i64, ptr %4, align 8, !tbaa !15
  %8 = call { i64, i64 } @XXH_mult64to128(i64 noundef %6, i64 noundef %7)
  %9 = getelementptr inbounds nuw { i64, i64 }, ptr %5, i32 0, i32 0
  %10 = extractvalue { i64, i64 } %8, 0
  store i64 %10, ptr %9, align 8
  %11 = getelementptr inbounds nuw { i64, i64 }, ptr %5, i32 0, i32 1
  %12 = extractvalue { i64, i64 } %8, 1
  store i64 %12, ptr %11, align 8
  %13 = getelementptr inbounds nuw %struct.XXH_NAMESPACEXXH128_hash_t, ptr %5, i32 0, i32 0
  %14 = load i64, ptr %13, align 8, !tbaa !90
  %15 = getelementptr inbounds nuw %struct.XXH_NAMESPACEXXH128_hash_t, ptr %5, i32 0, i32 1
  %16 = load i64, ptr %15, align 8, !tbaa !88
  %17 = xor i64 %14, %16
  call void @llvm.lifetime.end.p0(i64 16, ptr %5) #14
  ret i64 %17
}

; Function Attrs: alwaysinline nounwind uwtable
define internal i64 @XXH_xorshift64(i64 noundef %0, i32 noundef %1) #4 {
  %3 = alloca i64, align 8
  %4 = alloca i32, align 4
  store i64 %0, ptr %3, align 8, !tbaa !15
  store i32 %1, ptr %4, align 4, !tbaa !20
  %5 = load i64, ptr %3, align 8, !tbaa !15
  %6 = load i64, ptr %3, align 8, !tbaa !15
  %7 = load i32, ptr %4, align 4, !tbaa !20
  %8 = zext i32 %7 to i64
  %9 = lshr i64 %6, %8
  %10 = xor i64 %5, %9
  ret i64 %10
}

; Function Attrs: alwaysinline nounwind uwtable
define internal i64 @XXH_readLE64(ptr noundef %0) #4 {
  %2 = alloca ptr, align 8
  store ptr %0, ptr %2, align 8, !tbaa !4
  %3 = load ptr, ptr %2, align 8, !tbaa !4
  %4 = call i64 @XXH_read64(ptr noundef %3)
  ret i64 %4
}

; Function Attrs: alwaysinline nounwind uwtable
define internal i64 @XXH3_mix16B(ptr noalias noundef %0, ptr noalias noundef %1, i64 noundef %2) #4 {
  %4 = alloca ptr, align 8
  %5 = alloca ptr, align 8
  %6 = alloca i64, align 8
  %7 = alloca i64, align 8
  %8 = alloca i64, align 8
  store ptr %0, ptr %4, align 8, !tbaa !13
  store ptr %1, ptr %5, align 8, !tbaa !13
  store i64 %2, ptr %6, align 8, !tbaa !15
  call void @llvm.lifetime.start.p0(i64 8, ptr %7) #14
  %9 = load ptr, ptr %4, align 8, !tbaa !13
  %10 = call i64 @XXH_readLE64(ptr noundef %9)
  store i64 %10, ptr %7, align 8, !tbaa !15
  call void @llvm.lifetime.start.p0(i64 8, ptr %8) #14
  %11 = load ptr, ptr %4, align 8, !tbaa !13
  %12 = getelementptr inbounds i8, ptr %11, i64 8
  %13 = call i64 @XXH_readLE64(ptr noundef %12)
  store i64 %13, ptr %8, align 8, !tbaa !15
  %14 = load i64, ptr %7, align 8, !tbaa !15
  %15 = load ptr, ptr %5, align 8, !tbaa !13
  %16 = call i64 @XXH_readLE64(ptr noundef %15)
  %17 = load i64, ptr %6, align 8, !tbaa !15
  %18 = add i64 %16, %17
  %19 = xor i64 %14, %18
  %20 = load i64, ptr %8, align 8, !tbaa !15
  %21 = load ptr, ptr %5, align 8, !tbaa !13
  %22 = getelementptr inbounds i8, ptr %21, i64 8
  %23 = call i64 @XXH_readLE64(ptr noundef %22)
  %24 = load i64, ptr %6, align 8, !tbaa !15
  %25 = sub i64 %23, %24
  %26 = xor i64 %20, %25
  %27 = call i64 @XXH3_mul128_fold64(i64 noundef %19, i64 noundef %26)
  call void @llvm.lifetime.end.p0(i64 8, ptr %8) #14
  call void @llvm.lifetime.end.p0(i64 8, ptr %7) #14
  ret i64 %27
}

; Function Attrs: nounwind uwtable
define internal i64 @XXH3_avalanche(i64 noundef %0) #0 {
  %2 = alloca i64, align 8
  store i64 %0, ptr %2, align 8, !tbaa !15
  %3 = load i64, ptr %2, align 8, !tbaa !15
  %4 = call i64 @XXH_xorshift64(i64 noundef %3, i32 noundef 37)
  store i64 %4, ptr %2, align 8, !tbaa !15
  %5 = load i64, ptr %2, align 8, !tbaa !15
  %6 = mul i64 %5, 1609587791953885689
  store i64 %6, ptr %2, align 8, !tbaa !15
  %7 = load i64, ptr %2, align 8, !tbaa !15
  %8 = call i64 @XXH_xorshift64(i64 noundef %7, i32 noundef 32)
  store i64 %8, ptr %2, align 8, !tbaa !15
  %9 = load i64, ptr %2, align 8, !tbaa !15
  ret i64 %9
}

; Function Attrs: alwaysinline nounwind uwtable
define internal { i64, i64 } @XXH128_mix32B(i64 %0, i64 %1, ptr noundef %2, ptr noundef %3, ptr noundef %4, i64 noundef %5) #4 {
  %7 = alloca %struct.XXH_NAMESPACEXXH128_hash_t, align 8
  %8 = alloca %struct.XXH_NAMESPACEXXH128_hash_t, align 8
  %9 = alloca ptr, align 8
  %10 = alloca ptr, align 8
  %11 = alloca ptr, align 8
  %12 = alloca i64, align 8
  %13 = getelementptr inbounds nuw { i64, i64 }, ptr %8, i32 0, i32 0
  store i64 %0, ptr %13, align 8
  %14 = getelementptr inbounds nuw { i64, i64 }, ptr %8, i32 0, i32 1
  store i64 %1, ptr %14, align 8
  store ptr %2, ptr %9, align 8, !tbaa !13
  store ptr %3, ptr %10, align 8, !tbaa !13
  store ptr %4, ptr %11, align 8, !tbaa !13
  store i64 %5, ptr %12, align 8, !tbaa !15
  %15 = load ptr, ptr %9, align 8, !tbaa !13
  %16 = load ptr, ptr %11, align 8, !tbaa !13
  %17 = getelementptr inbounds i8, ptr %16, i64 0
  %18 = load i64, ptr %12, align 8, !tbaa !15
  %19 = call i64 @XXH3_mix16B(ptr noundef %15, ptr noundef %17, i64 noundef %18)
  %20 = getelementptr inbounds nuw %struct.XXH_NAMESPACEXXH128_hash_t, ptr %8, i32 0, i32 0
  %21 = load i64, ptr %20, align 8, !tbaa !90
  %22 = add i64 %21, %19
  store i64 %22, ptr %20, align 8, !tbaa !90
  %23 = load ptr, ptr %10, align 8, !tbaa !13
  %24 = call i64 @XXH_readLE64(ptr noundef %23)
  %25 = load ptr, ptr %10, align 8, !tbaa !13
  %26 = getelementptr inbounds i8, ptr %25, i64 8
  %27 = call i64 @XXH_readLE64(ptr noundef %26)
  %28 = add i64 %24, %27
  %29 = getelementptr inbounds nuw %struct.XXH_NAMESPACEXXH128_hash_t, ptr %8, i32 0, i32 0
  %30 = load i64, ptr %29, align 8, !tbaa !90
  %31 = xor i64 %30, %28
  store i64 %31, ptr %29, align 8, !tbaa !90
  %32 = load ptr, ptr %10, align 8, !tbaa !13
  %33 = load ptr, ptr %11, align 8, !tbaa !13
  %34 = getelementptr inbounds i8, ptr %33, i64 16
  %35 = load i64, ptr %12, align 8, !tbaa !15
  %36 = call i64 @XXH3_mix16B(ptr noundef %32, ptr noundef %34, i64 noundef %35)
  %37 = getelementptr inbounds nuw %struct.XXH_NAMESPACEXXH128_hash_t, ptr %8, i32 0, i32 1
  %38 = load i64, ptr %37, align 8, !tbaa !88
  %39 = add i64 %38, %36
  store i64 %39, ptr %37, align 8, !tbaa !88
  %40 = load ptr, ptr %9, align 8, !tbaa !13
  %41 = call i64 @XXH_readLE64(ptr noundef %40)
  %42 = load ptr, ptr %9, align 8, !tbaa !13
  %43 = getelementptr inbounds i8, ptr %42, i64 8
  %44 = call i64 @XXH_readLE64(ptr noundef %43)
  %45 = add i64 %41, %44
  %46 = getelementptr inbounds nuw %struct.XXH_NAMESPACEXXH128_hash_t, ptr %8, i32 0, i32 1
  %47 = load i64, ptr %46, align 8, !tbaa !88
  %48 = xor i64 %47, %45
  store i64 %48, ptr %46, align 8, !tbaa !88
  call void @llvm.memcpy.p0.p0.i64(ptr align 8 %7, ptr align 8 %8, i64 16, i1 false), !tbaa.struct !104
  %49 = load { i64, i64 }, ptr %7, align 8
  ret { i64, i64 } %49
}

; Function Attrs: noinline nounwind uwtable
define internal { i64, i64 } @XXH3_len_129to240_128b(ptr noalias noundef %0, i64 noundef %1, ptr noalias noundef %2, i64 noundef %3, i64 noundef %4) #13 {
  %6 = alloca %struct.XXH_NAMESPACEXXH128_hash_t, align 8
  %7 = alloca ptr, align 8
  %8 = alloca i64, align 8
  %9 = alloca ptr, align 8
  %10 = alloca i64, align 8
  %11 = alloca i64, align 8
  %12 = alloca %struct.XXH_NAMESPACEXXH128_hash_t, align 8
  %13 = alloca i32, align 4
  %14 = alloca i32, align 4
  %15 = alloca %struct.XXH_NAMESPACEXXH128_hash_t, align 8
  %16 = alloca %struct.XXH_NAMESPACEXXH128_hash_t, align 8
  %17 = alloca %struct.XXH_NAMESPACEXXH128_hash_t, align 8
  store ptr %0, ptr %7, align 8, !tbaa !13
  store i64 %1, ptr %8, align 8, !tbaa !15
  store ptr %2, ptr %9, align 8, !tbaa !13
  store i64 %3, ptr %10, align 8, !tbaa !15
  store i64 %4, ptr %11, align 8, !tbaa !15
  call void @llvm.lifetime.start.p0(i64 16, ptr %12) #14
  call void @llvm.lifetime.start.p0(i64 4, ptr %13) #14
  %18 = load i64, ptr %8, align 8, !tbaa !15
  %19 = trunc i64 %18 to i32
  %20 = sdiv i32 %19, 32
  store i32 %20, ptr %13, align 4, !tbaa !20
  call void @llvm.lifetime.start.p0(i64 4, ptr %14) #14
  %21 = load i64, ptr %8, align 8, !tbaa !15
  %22 = mul i64 %21, -7046029288634856825
  %23 = getelementptr inbounds nuw %struct.XXH_NAMESPACEXXH128_hash_t, ptr %12, i32 0, i32 0
  store i64 %22, ptr %23, align 8, !tbaa !90
  %24 = getelementptr inbounds nuw %struct.XXH_NAMESPACEXXH128_hash_t, ptr %12, i32 0, i32 1
  store i64 0, ptr %24, align 8, !tbaa !88
  store i32 0, ptr %14, align 4, !tbaa !20
  br label %25

25:                                               ; preds = %55, %5
  %26 = load i32, ptr %14, align 4, !tbaa !20
  %27 = icmp slt i32 %26, 4
  br i1 %27, label %28, label %58

28:                                               ; preds = %25
  call void @llvm.lifetime.start.p0(i64 16, ptr %15) #14
  %29 = load ptr, ptr %7, align 8, !tbaa !13
  %30 = load i32, ptr %14, align 4, !tbaa !20
  %31 = mul nsw i32 32, %30
  %32 = sext i32 %31 to i64
  %33 = getelementptr inbounds i8, ptr %29, i64 %32
  %34 = load ptr, ptr %7, align 8, !tbaa !13
  %35 = load i32, ptr %14, align 4, !tbaa !20
  %36 = mul nsw i32 32, %35
  %37 = sext i32 %36 to i64
  %38 = getelementptr inbounds i8, ptr %34, i64 %37
  %39 = getelementptr inbounds i8, ptr %38, i64 16
  %40 = load ptr, ptr %9, align 8, !tbaa !13
  %41 = load i32, ptr %14, align 4, !tbaa !20
  %42 = mul nsw i32 32, %41
  %43 = sext i32 %42 to i64
  %44 = getelementptr inbounds i8, ptr %40, i64 %43
  %45 = load i64, ptr %11, align 8, !tbaa !15
  %46 = getelementptr inbounds nuw { i64, i64 }, ptr %12, i32 0, i32 0
  %47 = load i64, ptr %46, align 8
  %48 = getelementptr inbounds nuw { i64, i64 }, ptr %12, i32 0, i32 1
  %49 = load i64, ptr %48, align 8
  %50 = call { i64, i64 } @XXH128_mix32B(i64 %47, i64 %49, ptr noundef %33, ptr noundef %39, ptr noundef %44, i64 noundef %45)
  %51 = getelementptr inbounds nuw { i64, i64 }, ptr %15, i32 0, i32 0
  %52 = extractvalue { i64, i64 } %50, 0
  store i64 %52, ptr %51, align 8
  %53 = getelementptr inbounds nuw { i64, i64 }, ptr %15, i32 0, i32 1
  %54 = extractvalue { i64, i64 } %50, 1
  store i64 %54, ptr %53, align 8
  call void @llvm.memcpy.p0.p0.i64(ptr align 8 %12, ptr align 8 %15, i64 16, i1 false), !tbaa.struct !104
  call void @llvm.lifetime.end.p0(i64 16, ptr %15) #14
  br label %55

55:                                               ; preds = %28
  %56 = load i32, ptr %14, align 4, !tbaa !20
  %57 = add nsw i32 %56, 1
  store i32 %57, ptr %14, align 4, !tbaa !20
  br label %25

58:                                               ; preds = %25
  %59 = getelementptr inbounds nuw %struct.XXH_NAMESPACEXXH128_hash_t, ptr %12, i32 0, i32 0
  %60 = load i64, ptr %59, align 8, !tbaa !90
  %61 = call i64 @XXH3_avalanche(i64 noundef %60)
  %62 = getelementptr inbounds nuw %struct.XXH_NAMESPACEXXH128_hash_t, ptr %12, i32 0, i32 0
  store i64 %61, ptr %62, align 8, !tbaa !90
  %63 = getelementptr inbounds nuw %struct.XXH_NAMESPACEXXH128_hash_t, ptr %12, i32 0, i32 1
  %64 = load i64, ptr %63, align 8, !tbaa !88
  %65 = call i64 @XXH3_avalanche(i64 noundef %64)
  %66 = getelementptr inbounds nuw %struct.XXH_NAMESPACEXXH128_hash_t, ptr %12, i32 0, i32 1
  store i64 %65, ptr %66, align 8, !tbaa !88
  store i32 4, ptr %14, align 4, !tbaa !20
  br label %67

67:                                               ; preds = %100, %58
  %68 = load i32, ptr %14, align 4, !tbaa !20
  %69 = load i32, ptr %13, align 4, !tbaa !20
  %70 = icmp slt i32 %68, %69
  br i1 %70, label %71, label %103

71:                                               ; preds = %67
  call void @llvm.lifetime.start.p0(i64 16, ptr %16) #14
  %72 = load ptr, ptr %7, align 8, !tbaa !13
  %73 = load i32, ptr %14, align 4, !tbaa !20
  %74 = mul nsw i32 32, %73
  %75 = sext i32 %74 to i64
  %76 = getelementptr inbounds i8, ptr %72, i64 %75
  %77 = load ptr, ptr %7, align 8, !tbaa !13
  %78 = load i32, ptr %14, align 4, !tbaa !20
  %79 = mul nsw i32 32, %78
  %80 = sext i32 %79 to i64
  %81 = getelementptr inbounds i8, ptr %77, i64 %80
  %82 = getelementptr inbounds i8, ptr %81, i64 16
  %83 = load ptr, ptr %9, align 8, !tbaa !13
  %84 = getelementptr inbounds i8, ptr %83, i64 3
  %85 = load i32, ptr %14, align 4, !tbaa !20
  %86 = sub nsw i32 %85, 4
  %87 = mul nsw i32 32, %86
  %88 = sext i32 %87 to i64
  %89 = getelementptr inbounds i8, ptr %84, i64 %88
  %90 = load i64, ptr %11, align 8, !tbaa !15
  %91 = getelementptr inbounds nuw { i64, i64 }, ptr %12, i32 0, i32 0
  %92 = load i64, ptr %91, align 8
  %93 = getelementptr inbounds nuw { i64, i64 }, ptr %12, i32 0, i32 1
  %94 = load i64, ptr %93, align 8
  %95 = call { i64, i64 } @XXH128_mix32B(i64 %92, i64 %94, ptr noundef %76, ptr noundef %82, ptr noundef %89, i64 noundef %90)
  %96 = getelementptr inbounds nuw { i64, i64 }, ptr %16, i32 0, i32 0
  %97 = extractvalue { i64, i64 } %95, 0
  store i64 %97, ptr %96, align 8
  %98 = getelementptr inbounds nuw { i64, i64 }, ptr %16, i32 0, i32 1
  %99 = extractvalue { i64, i64 } %95, 1
  store i64 %99, ptr %98, align 8
  call void @llvm.memcpy.p0.p0.i64(ptr align 8 %12, ptr align 8 %16, i64 16, i1 false), !tbaa.struct !104
  call void @llvm.lifetime.end.p0(i64 16, ptr %16) #14
  br label %100

100:                                              ; preds = %71
  %101 = load i32, ptr %14, align 4, !tbaa !20
  %102 = add nsw i32 %101, 1
  store i32 %102, ptr %14, align 4, !tbaa !20
  br label %67

103:                                              ; preds = %67
  call void @llvm.lifetime.start.p0(i64 16, ptr %17) #14
  %104 = load ptr, ptr %7, align 8, !tbaa !13
  %105 = load i64, ptr %8, align 8, !tbaa !15
  %106 = getelementptr inbounds nuw i8, ptr %104, i64 %105
  %107 = getelementptr inbounds i8, ptr %106, i64 -16
  %108 = load ptr, ptr %7, align 8, !tbaa !13
  %109 = load i64, ptr %8, align 8, !tbaa !15
  %110 = getelementptr inbounds nuw i8, ptr %108, i64 %109
  %111 = getelementptr inbounds i8, ptr %110, i64 -32
  %112 = load ptr, ptr %9, align 8, !tbaa !13
  %113 = getelementptr inbounds i8, ptr %112, i64 136
  %114 = getelementptr inbounds i8, ptr %113, i64 -17
  %115 = getelementptr inbounds i8, ptr %114, i64 -16
  %116 = load i64, ptr %11, align 8, !tbaa !15
  %117 = sub i64 0, %116
  %118 = getelementptr inbounds nuw { i64, i64 }, ptr %12, i32 0, i32 0
  %119 = load i64, ptr %118, align 8
  %120 = getelementptr inbounds nuw { i64, i64 }, ptr %12, i32 0, i32 1
  %121 = load i64, ptr %120, align 8
  %122 = call { i64, i64 } @XXH128_mix32B(i64 %119, i64 %121, ptr noundef %107, ptr noundef %111, ptr noundef %115, i64 noundef %117)
  %123 = getelementptr inbounds nuw { i64, i64 }, ptr %17, i32 0, i32 0
  %124 = extractvalue { i64, i64 } %122, 0
  store i64 %124, ptr %123, align 8
  %125 = getelementptr inbounds nuw { i64, i64 }, ptr %17, i32 0, i32 1
  %126 = extractvalue { i64, i64 } %122, 1
  store i64 %126, ptr %125, align 8
  call void @llvm.memcpy.p0.p0.i64(ptr align 8 %12, ptr align 8 %17, i64 16, i1 false), !tbaa.struct !104
  call void @llvm.lifetime.end.p0(i64 16, ptr %17) #14
  %127 = getelementptr inbounds nuw %struct.XXH_NAMESPACEXXH128_hash_t, ptr %12, i32 0, i32 0
  %128 = load i64, ptr %127, align 8, !tbaa !90
  %129 = getelementptr inbounds nuw %struct.XXH_NAMESPACEXXH128_hash_t, ptr %12, i32 0, i32 1
  %130 = load i64, ptr %129, align 8, !tbaa !88
  %131 = add i64 %128, %130
  %132 = getelementptr inbounds nuw %struct.XXH_NAMESPACEXXH128_hash_t, ptr %6, i32 0, i32 0
  store i64 %131, ptr %132, align 8, !tbaa !90
  %133 = getelementptr inbounds nuw %struct.XXH_NAMESPACEXXH128_hash_t, ptr %12, i32 0, i32 0
  %134 = load i64, ptr %133, align 8, !tbaa !90
  %135 = mul i64 %134, -7046029288634856825
  %136 = getelementptr inbounds nuw %struct.XXH_NAMESPACEXXH128_hash_t, ptr %12, i32 0, i32 1
  %137 = load i64, ptr %136, align 8, !tbaa !88
  %138 = mul i64 %137, -8796714831421723037
  %139 = add i64 %135, %138
  %140 = load i64, ptr %8, align 8, !tbaa !15
  %141 = load i64, ptr %11, align 8, !tbaa !15
  %142 = sub i64 %140, %141
  %143 = mul i64 %142, -4417276706812531889
  %144 = add i64 %139, %143
  %145 = getelementptr inbounds nuw %struct.XXH_NAMESPACEXXH128_hash_t, ptr %6, i32 0, i32 1
  store i64 %144, ptr %145, align 8, !tbaa !88
  %146 = getelementptr inbounds nuw %struct.XXH_NAMESPACEXXH128_hash_t, ptr %6, i32 0, i32 0
  %147 = load i64, ptr %146, align 8, !tbaa !90
  %148 = call i64 @XXH3_avalanche(i64 noundef %147)
  %149 = getelementptr inbounds nuw %struct.XXH_NAMESPACEXXH128_hash_t, ptr %6, i32 0, i32 0
  store i64 %148, ptr %149, align 8, !tbaa !90
  %150 = getelementptr inbounds nuw %struct.XXH_NAMESPACEXXH128_hash_t, ptr %6, i32 0, i32 1
  %151 = load i64, ptr %150, align 8, !tbaa !88
  %152 = call i64 @XXH3_avalanche(i64 noundef %151)
  %153 = sub i64 0, %152
  %154 = getelementptr inbounds nuw %struct.XXH_NAMESPACEXXH128_hash_t, ptr %6, i32 0, i32 1
  store i64 %153, ptr %154, align 8, !tbaa !88
  call void @llvm.lifetime.end.p0(i64 4, ptr %14) #14
  call void @llvm.lifetime.end.p0(i64 4, ptr %13) #14
  call void @llvm.lifetime.end.p0(i64 16, ptr %12) #14
  %155 = load { i64, i64 }, ptr %6, align 8
  ret { i64, i64 } %155
}