; Function Attrs: nofree noinline norecurse nosync nounwind memory(argmem: read) uwtable
define internal fastcc { i64, i64 } @XXH3_len_129to240_128b(ptr noalias noundef readonly captures(none) %0, i64 noundef range(i64 129, 241) %1, ptr noalias noundef readonly captures(none) %2, i64 noundef %3) unnamed_addr #13 {
  %5 = trunc nuw nsw i64 %1 to i32
  %6 = mul i64 %1, -7046029288634856825
  br label %7

7:                                                ; preds = %4, %7
  %indvars.iv = phi i64 [ 0, %4 ], [ %indvars.iv.next, %7 ]
  %.sroa.13.088 = phi i64 [ 0, %4 ], [ %42, %7 ]
  %.sroa.015.087 = phi i64 [ %6, %4 ], [ %27, %7 ]
  %8 = shl nuw nsw i64 %indvars.iv, 5
  %9 = getelementptr inbounds nuw i8, ptr %0, i64 %8
  %10 = getelementptr inbounds nuw i8, ptr %9, i64 16
  %11 = getelementptr inbounds nuw i8, ptr %2, i64 %8
  %.0.copyload.i = load i64, ptr %9, align 1, !noalias !660
  %12 = getelementptr inbounds nuw i8, ptr %9, i64 8
  %.0.copyload.i51 = load i64, ptr %12, align 1, !noalias !660
  %.0.copyload.i52 = load i64, ptr %11, align 1
  %13 = add i64 %.0.copyload.i52, %3
  %14 = xor i64 %13, %.0.copyload.i
  %15 = getelementptr inbounds nuw i8, ptr %11, i64 8
  %.0.copyload.i53 = load i64, ptr %15, align 1
  %16 = sub i64 %.0.copyload.i53, %3
  %17 = xor i64 %16, %.0.copyload.i51
  %18 = zext i64 %14 to i128
  %19 = zext i64 %17 to i128
  %20 = mul nuw i128 %19, %18
  %21 = lshr i128 %20, 64
  %22 = xor i128 %21, %20
  %23 = trunc i128 %22 to i64
  %24 = add i64 %.sroa.015.087, %23
  %.0.copyload.i54 = load i64, ptr %10, align 1
  %25 = getelementptr inbounds nuw i8, ptr %9, i64 24
  %.0.copyload.i55 = load i64, ptr %25, align 1
  %26 = add i64 %.0.copyload.i55, %.0.copyload.i54
  %27 = xor i64 %24, %26
  %28 = getelementptr inbounds nuw i8, ptr %11, i64 16
  %.0.copyload.i58 = load i64, ptr %28, align 1
  %29 = add i64 %.0.copyload.i58, %3
  %30 = xor i64 %29, %.0.copyload.i54
  %31 = getelementptr inbounds nuw i8, ptr %11, i64 24
  %.0.copyload.i59 = load i64, ptr %31, align 1
  %32 = sub i64 %.0.copyload.i59, %3
  %33 = xor i64 %32, %.0.copyload.i55
  %34 = zext i64 %30 to i128
  %35 = zext i64 %33 to i128
  %36 = mul nuw i128 %35, %34
  %37 = lshr i128 %36, 64
  %38 = xor i128 %37, %36
  %39 = trunc i128 %38 to i64
  %40 = add i64 %.sroa.13.088, %39
  %41 = add i64 %.0.copyload.i51, %.0.copyload.i
  %42 = xor i64 %40, %41
  %indvars.iv.next = add nuw nsw i64 %indvars.iv, 1
  %exitcond.not = icmp eq i64 %indvars.iv.next, 4
  br i1 %exitcond.not, label %43, label %7

43:                                               ; preds = %7
  %44 = lshr i32 %5, 5
  %45 = lshr i64 %27, 37
  %46 = xor i64 %45, %27
  %47 = mul i64 %46, 1609587791953885689
  %48 = lshr i64 %47, 32
  %49 = xor i64 %48, %47
  %50 = lshr i64 %42, 37
  %51 = xor i64 %50, %42
  %52 = mul i64 %51, 1609587791953885689
  %53 = lshr i64 %52, 32
  %54 = xor i64 %53, %52
  %.not = icmp eq i32 %44, 4
  br i1 %.not, label %._crit_edge, label %.lr.ph

.lr.ph:                                           ; preds = %43
  %55 = getelementptr inbounds nuw i8, ptr %2, i64 3
  %wide.trip.count = zext nneg i32 %44 to i64
  br label %56

56:                                               ; preds = %.lr.ph, %56
  %indvars.iv97 = phi i64 [ 4, %.lr.ph ], [ %indvars.iv.next98, %56 ]
  %.sroa.13.191 = phi i64 [ %54, %.lr.ph ], [ %92, %56 ]
  %.sroa.015.190 = phi i64 [ %49, %.lr.ph ], [ %77, %56 ]
  %57 = shl nsw i64 %indvars.iv97, 5
  %58 = getelementptr inbounds nuw i8, ptr %0, i64 %57
  %59 = getelementptr inbounds nuw i8, ptr %58, i64 16
  %60 = getelementptr i8, ptr %55, i64 %57
  %61 = getelementptr i8, ptr %60, i64 -128
  %.0.copyload.i62 = load i64, ptr %58, align 1, !noalias !663
  %62 = getelementptr inbounds nuw i8, ptr %58, i64 8
  %.0.copyload.i63 = load i64, ptr %62, align 1, !noalias !663
  %.0.copyload.i64 = load i64, ptr %61, align 1
  %63 = add i64 %.0.copyload.i64, %3
  %64 = xor i64 %63, %.0.copyload.i62
  %65 = getelementptr i8, ptr %60, i64 -120
  %.0.copyload.i65 = load i64, ptr %65, align 1
  %66 = sub i64 %.0.copyload.i65, %3
  %67 = xor i64 %66, %.0.copyload.i63
  %68 = zext i64 %64 to i128
  %69 = zext i64 %67 to i128
  %70 = mul nuw i128 %69, %68
  %71 = lshr i128 %70, 64
  %72 = xor i128 %71, %70
  %73 = trunc i128 %72 to i64
  %74 = add i64 %.sroa.015.190, %73
  %.0.copyload.i66 = load i64, ptr %59, align 1
  %75 = getelementptr inbounds nuw i8, ptr %58, i64 24
  %.0.copyload.i67 = load i64, ptr %75, align 1
  %76 = add i64 %.0.copyload.i67, %.0.copyload.i66
  %77 = xor i64 %74, %76
  %78 = getelementptr i8, ptr %60, i64 -112
  %.0.copyload.i70 = load i64, ptr %78, align 1
  %79 = add i64 %.0.copyload.i70, %3
  %80 = xor i64 %79, %.0.copyload.i66
  %81 = getelementptr i8, ptr %60, i64 -104
  %.0.copyload.i71 = load i64, ptr %81, align 1
  %82 = sub i64 %.0.copyload.i71, %3
  %83 = xor i64 %82, %.0.copyload.i67
  %84 = zext i64 %80 to i128
  %85 = zext i64 %83 to i128
  %86 = mul nuw i128 %85, %84
  %87 = lshr i128 %86, 64
  %88 = xor i128 %87, %86
  %89 = trunc i128 %88 to i64
  %90 = add i64 %.sroa.13.191, %89
  %91 = add i64 %.0.copyload.i63, %.0.copyload.i62
  %92 = xor i64 %90, %91
  %indvars.iv.next98 = add nuw nsw i64 %indvars.iv97, 1
  %exitcond100.not = icmp eq i64 %indvars.iv.next98, %wide.trip.count
  br i1 %exitcond100.not, label %._crit_edge, label %56

._crit_edge:                                      ; preds = %56, %43
  %.sroa.015.1.lcssa = phi i64 [ %49, %43 ], [ %77, %56 ]
  %.sroa.13.1.lcssa = phi i64 [ %54, %43 ], [ %92, %56 ]
  %93 = getelementptr inbounds nuw i8, ptr %0, i64 %1
  %94 = getelementptr inbounds i8, ptr %93, i64 -16
  %95 = getelementptr inbounds i8, ptr %93, i64 -32
  %96 = getelementptr inbounds nuw i8, ptr %2, i64 103
  %.0.copyload.i74 = load i64, ptr %94, align 1, !noalias !666
  %97 = getelementptr inbounds i8, ptr %93, i64 -8
  %.0.copyload.i75 = load i64, ptr %97, align 1, !noalias !666
  %.0.copyload.i76 = load i64, ptr %96, align 1
  %98 = sub i64 %.0.copyload.i76, %3
  %99 = xor i64 %98, %.0.copyload.i74
  %100 = getelementptr inbounds nuw i8, ptr %2, i64 111
  %.0.copyload.i77 = load i64, ptr %100, align 1
  %101 = add i64 %.0.copyload.i77, %3
  %102 = xor i64 %101, %.0.copyload.i75
  %103 = zext i64 %99 to i128
  %104 = zext i64 %102 to i128
  %105 = mul nuw i128 %104, %103
  %106 = lshr i128 %105, 64
  %107 = xor i128 %106, %105
  %108 = trunc i128 %107 to i64
  %109 = add i64 %.sroa.015.1.lcssa, %108
  %.0.copyload.i78 = load i64, ptr %95, align 1
  %110 = getelementptr inbounds i8, ptr %93, i64 -24
  %.0.copyload.i79 = load i64, ptr %110, align 1
  %111 = add i64 %.0.copyload.i79, %.0.copyload.i78
  %112 = xor i64 %109, %111
  %113 = getelementptr inbounds nuw i8, ptr %2, i64 119
  %.0.copyload.i82 = load i64, ptr %113, align 1
  %114 = sub i64 %.0.copyload.i82, %3
  %115 = xor i64 %114, %.0.copyload.i78
  %116 = getelementptr inbounds nuw i8, ptr %2, i64 127
  %.0.copyload.i83 = load i64, ptr %116, align 1
  %117 = add i64 %.0.copyload.i83, %3
  %118 = xor i64 %117, %.0.copyload.i79
  %119 = zext i64 %115 to i128
  %120 = zext i64 %118 to i128
  %121 = mul nuw i128 %120, %119
  %122 = lshr i128 %121, 64
  %123 = xor i128 %122, %121
  %124 = trunc i128 %123 to i64
  %125 = add i64 %.sroa.13.1.lcssa, %124
  %126 = add i64 %.0.copyload.i75, %.0.copyload.i74
  %127 = xor i64 %125, %126
  %128 = add i64 %127, %112
  %129 = mul i64 %112, -7046029288634856825
  %130 = mul i64 %127, -8796714831421723037
  %131 = sub i64 %1, %3
  %132 = mul i64 %131, -4417276706812531889
  %133 = add i64 %129, %132
  %134 = add i64 %133, %130
  %135 = lshr i64 %128, 37
  %136 = xor i64 %135, %128
  %137 = mul i64 %136, 1609587791953885689
  %138 = lshr i64 %137, 32
  %139 = xor i64 %138, %137
  %140 = lshr i64 %134, 37
  %141 = xor i64 %140, %134
  %142 = mul i64 %141, 1609587791953885689
  %143 = lshr i64 %142, 32
  %144 = xor i64 %143, %142
  %145 = sub i64 0, %144
  %.fca.0.insert = insertvalue { i64, i64 } poison, i64 %139, 0
  %.fca.1.insert = insertvalue { i64, i64 } %.fca.0.insert, i64 %145, 1
  ret { i64, i64 } %.fca.1.insert
}